target datalayout = "e-m:e-p270:32:32-p271:32:32-p272:64:64-i64:64-i128:128-f80:128-n8:16:32:64-S128"
target triple = "x86_64-pc-linux-gnu"

%"class.nix::CanonPath" = type { %"class.std::__cxx11::basic_string" }
%"class.std::__cxx11::basic_string" = type { %"struct.std::__cxx11::basic_string<char>::_Alloc_hider", i64, %union.anon }
%"struct.std::__cxx11::basic_string<char>::_Alloc_hider" = type { ptr }
%union.anon = type { i64, [8 x i8] }
%"struct.nix::FilteringInputAccessor" = type { %"struct.nix::InputAccessor.base", %"class.nix::ref", %"class.nix::CanonPath", %"class.std::function", %"struct.nix::SourceAccessor" }
%"struct.nix::InputAccessor.base" = type { ptr, %"class.std::enable_shared_from_this", %"class.std::optional" }
%"class.std::enable_shared_from_this" = type { %"class.std::weak_ptr" }
%"class.std::weak_ptr" = type { %"class.std::__weak_ptr" }
%"class.std::__weak_ptr" = type { ptr, %"class.std::__weak_count" }
%"class.std::__weak_count" = type { ptr }
%"class.std::optional" = type { %"struct.std::_Optional_base" }
%"struct.std::_Optional_base" = type { %"struct.std::_Optional_payload" }
%"struct.std::_Optional_payload" = type { %"struct.std::_Optional_payload.base", [7 x i8] }
%"struct.std::_Optional_payload.base" = type { %"struct.std::_Optional_payload_base.base" }
%"struct.std::_Optional_payload_base.base" = type <{ %"union.std::_Optional_payload_base<std::__cxx11::basic_string<char>>::_Storage", i8 }>
%"union.std::_Optional_payload_base<std::__cxx11::basic_string<char>>::_Storage" = type { %"class.std::__cxx11::basic_string" }
%"class.nix::ref" = type { %"class.std::shared_ptr" }
%"class.std::shared_ptr" = type { %"class.std::__shared_ptr" }
%"class.std::__shared_ptr" = type { ptr, %"class.std::__shared_count" }
%"class.std::__shared_count" = type { ptr }
%"class.std::function" = type { %"class.std::_Function_base", ptr }
%"class.std::_Function_base" = type { %"union.std::_Any_data", ptr }
%"union.std::_Any_data" = type { %"union.std::_Nocopy_types" }
%"union.std::_Nocopy_types" = type { { i64, i64 } }
%"struct.nix::SourceAccessor" = type { ptr, i64, %"class.std::__cxx11::basic_string", %"class.std::__cxx11::basic_string" }

; Function Attrs: mustprogress nounwind uwtable
define linkonce_odr noundef ptr @_ZNKSt12__shared_ptrIN3nix13InputAccessorELN9__gnu_cxx12_Lock_policyE2EE3getEv(ptr noundef nonnull align 8 dereferenceable(16) %0) #4 comdat align 2 {
  %2 = alloca ptr, align 8
  store ptr %0, ptr %2, align 8
  %3 = load ptr, ptr %2, align 8
  %4 = getelementptr inbounds %"class.std::__shared_ptr", ptr %3, i32 0, i32 0
  %5 = load ptr, ptr %4, align 8
  ret ptr %5
}

; Function Attrs: mustprogress nounwind uwtable
define linkonce_odr noundef ptr @_ZNKSt19__shared_ptr_accessIN3nix13InputAccessorELN9__gnu_cxx12_Lock_policyE2ELb0ELb0EE6_M_getEv(ptr noundef nonnull align 1 dereferenceable(1) %0) #4 comdat align 2 {
  %2 = alloca ptr, align 8
  store ptr %0, ptr %2, align 8
  %3 = load ptr, ptr %2, align 8
  %4 = call noundef ptr @_ZNKSt12__shared_ptrIN3nix13InputAccessorELN9__gnu_cxx12_Lock_policyE2EE3getEv(ptr noundef nonnull align 8 dereferenceable(16) %3) #3
  ret ptr %4
}

; Function Attrs: mustprogress nounwind uwtable
define linkonce_odr noundef nonnull align 8 dereferenceable(64) ptr @_ZNKSt19__shared_ptr_accessIN3nix13InputAccessorELN9__gnu_cxx12_Lock_policyE2ELb0ELb0EEdeEv(ptr noundef nonnull align 1 dereferenceable(1) %0) #4 comdat align 2 {
  %2 = alloca ptr, align 8
  store ptr %0, ptr %2, align 8
  %3 = load ptr, ptr %2, align 8
  br label %4

4:                                                ; preds = %1
  br label %5

5:                                                ; preds = %4
  br label %6

6:                                                ; preds = %5
  %7 = call noundef ptr @_ZNKSt19__shared_ptr_accessIN3nix13InputAccessorELN9__gnu_cxx12_Lock_policyE2ELb0ELb0EE6_M_getEv(ptr noundef nonnull align 1 dereferenceable(1) %3) #3
  ret ptr %7
}

; Function Attrs: mustprogress nounwind uwtable
define linkonce_odr noundef ptr @_ZNK3nix3refINS_13InputAccessorEEptEv(ptr noundef nonnull align 8 dereferenceable(16) %0) #4 comdat align 2 {
  %2 = alloca ptr, align 8
  store ptr %0, ptr %2, align 8
  %3 = load ptr, ptr %2, align 8
  %4 = getelementptr inbounds %"class.nix::ref", ptr %3, i32 0, i32 0
  %5 = call noundef nonnull align 8 dereferenceable(64) ptr @_ZNKSt19__shared_ptr_accessIN3nix13InputAccessorELN9__gnu_cxx12_Lock_policyE2ELb0ELb0EEdeEv(ptr noundef nonnull align 1 dereferenceable(1) %4) #3
  ret ptr %5
}

; Function Attrs: mustprogress uwtable
define void @_ZN3nix22FilteringInputAccessor8showPathB5cxx11ERKNS_9CanonPathE(ptr dead_on_unwind noalias writable sret(%"class.std::__cxx11::basic_string") align 8 %0, ptr noundef nonnull align 8 dereferenceable(144) %1, ptr noundef nonnull align 8 dereferenceable(32) %2) unnamed_addr #5 align 2 personality ptr @__gxx_personality_v0 {
  %4 = alloca ptr, align 8
  %5 = alloca ptr, align 8
  %6 = alloca ptr, align 8
  %7 = alloca %"class.nix::CanonPath", align 8
  %8 = alloca ptr, align 8
  %9 = alloca i32, align 4
  store ptr %0, ptr %4, align 8
  store ptr %1, ptr %5, align 8
  store ptr %2, ptr %6, align 8
  %10 = load ptr, ptr %5, align 8
  %11 = getelementptr inbounds %"struct.nix::FilteringInputAccessor", ptr %10, i32 0, i32 1
  %12 = call noundef ptr @_ZNK3nix3refINS_13InputAccessorEEptEv(ptr noundef nonnull align 8 dereferenceable(16) %11)
  %13 = load ptr, ptr %12, align 8
  %14 = getelementptr i8, ptr %13, i64 -24
  %15 = load i64, ptr %14, align 8
  %16 = getelementptr inbounds i8, ptr %12, i64 %15
  %17 = getelementptr inbounds %"struct.nix::FilteringInputAccessor", ptr %10, i32 0, i32 2
  %18 = load ptr, ptr %6, align 8
  call void @_ZNK3nix9CanonPathdvERKS0_(ptr dead_on_unwind writable sret(%"class.nix::CanonPath") align 8 %7, ptr noundef nonnull align 8 dereferenceable(32) %17, ptr noundef nonnull align 8 dereferenceable(32) %18)
  %19 = load ptr, ptr %16, align 8
  %20 = getelementptr inbounds ptr, ptr %19, i64 10
  %21 = load ptr, ptr %20, align 8
  invoke void %21(ptr dead_on_unwind writable sret(%"class.std::__cxx11::basic_string") align 8 %0, ptr noundef nonnull align 8 dereferenceable(80) %16, ptr noundef nonnull align 8 dereferenceable(32) %7)
          to label %22 unwind label %23

22:                                               ; preds = %3
  call void @_ZN3nix9CanonPathD2Ev(ptr noundef nonnull align 8 dereferenceable(32) %7) #3
  ret void

23:                                               ; preds = %3
  %24 = landingpad { ptr, i32 }
          cleanup
  %25 = extractvalue { ptr, i32 } %24, 0
  store ptr %25, ptr %8, align 8
  %26 = extractvalue { ptr, i32 } %24, 1
  store i32 %26, ptr %9, align 4
  call void @_ZN3nix9CanonPathD2Ev(ptr noundef nonnull align 8 dereferenceable(32) %7) #3
  br label %27

27:                                               ; preds = %23
  %28 = load ptr, ptr %8, align 8
  %29 = load i32, ptr %9, align 4
  %30 = insertvalue { ptr, i32 } poison, ptr %28, 0
  %31 = insertvalue { ptr, i32 } %30, i32 %29, 1
  resume { ptr, i32 } %31
}

; Function Attrs: uwtable
define void @_ZTv0_n96_N3nix22FilteringInputAccessor8showPathB5cxx11ERKNS_9CanonPathE(ptr dead_on_unwind noalias writable sret(%"class.std::__cxx11::basic_string") align 8 %0, ptr noundef %1, ptr noundef nonnull align 8 dereferenceable(32) %2) unnamed_addr #0 align 2 {
  %4 = alloca ptr, align 8
  %5 = alloca ptr, align 8
  %6 = alloca ptr, align 8
  store ptr %0, ptr %4, align 8
  store ptr %1, ptr %5, align 8
  store ptr %2, ptr %6, align 8
  %7 = load ptr, ptr %5, align 8
  %8 = load ptr, ptr %7, align 8
  %9 = getelementptr inbounds i8, ptr %8, i64 -96
  %10 = load i64, ptr %9, align 8
  %11 = getelementptr inbounds i8, ptr %7, i64 %10
  %12 = load ptr, ptr %6, align 8
  tail call void @_ZN3nix22FilteringInputAccessor8showPathB5cxx11ERKNS_9CanonPathE(ptr dead_on_unwind writable sret(%"class.std::__cxx11::basic_string") align 8 %0, ptr noundef nonnull align 8 dereferenceable(144) %11, ptr noundef nonnull align 8 dereferenceable(32) %12)
  ret void
}