; Function Attrs: uwtable
define void @_ZTv0_n96_N3nix22FilteringInputAccessor8showPathB5cxx11ERKNS_9CanonPathE(ptr dead_on_unwind noalias writable sret(%"class.std::__cxx11::basic_string") align 8 %0, ptr noundef %1, ptr noundef nonnull align 8 dereferenceable(32) %2) unnamed_addr #6 align 2 personality ptr @__gxx_personality_v0 {
  %4 = alloca %"class.nix::CanonPath", align 8
  %5 = load ptr, ptr %1, align 8
  %6 = getelementptr inbounds i8, ptr %5, i64 -96
  %7 = load i64, ptr %6, align 8
  %8 = getelementptr inbounds i8, ptr %1, i64 %7
  call void @llvm.lifetime.start.p0(i64 32, ptr nonnull %4)
  %9 = getelementptr inbounds i8, ptr %8, i64 64
  %10 = load ptr, ptr %9, align 8, !noalias !16
  %11 = load ptr, ptr %10, align 8, !noalias !16
  %12 = getelementptr i8, ptr %11, i64 -24
  %13 = load i64, ptr %12, align 8, !noalias !16
  %14 = getelementptr inbounds i8, ptr %10, i64 %13
  %15 = getelementptr inbounds i8, ptr %8, i64 80
  call void @_ZNK3nix9CanonPathdvERKS0_(ptr dead_on_unwind nonnull writable sret(%"class.nix::CanonPath") align 8 %4, ptr noundef nonnull align 8 dereferenceable(32) %15, ptr noundef nonnull align 8 dereferenceable(32) %2), !noalias !16
  %16 = load ptr, ptr %14, align 8, !noalias !16
  %17 = getelementptr inbounds i8, ptr %16, i64 80
  %18 = load ptr, ptr %17, align 8, !noalias !16
  invoke void %18(ptr dead_on_unwind writable sret(%"class.std::__cxx11::basic_string") align 8 %0, ptr noundef nonnull align 8 dereferenceable(80) %14, ptr noundef nonnull align 8 dereferenceable(32) %4)
          to label %19 unwind label %26

19:                                               ; preds = %3
  %20 = load ptr, ptr %4, align 8, !noalias !16
  %21 = getelementptr inbounds i8, ptr %4, i64 16
  %22 = icmp eq ptr %20, %21
  br i1 %22, label %_ZNKSt7__cxx1112basic_stringIcSt11char_traitsIcESaIcEE11_M_is_localEv.exit.thread.i.i.i.i, label %_ZNKSt7__cxx1112basic_stringIcSt11char_traitsIcESaIcEE11_M_is_localEv.exit.i.i.i.i

_ZNKSt7__cxx1112basic_stringIcSt11char_traitsIcESaIcEE11_M_is_localEv.exit.thread.i.i.i.i: ; preds = %19
  %23 = getelementptr inbounds i8, ptr %4, i64 8
  %24 = load i64, ptr %23, align 8, !noalias !16
  %25 = icmp ult i64 %24, 16
  call void @llvm.assume(i1 %25)
  br label %_ZN3nix22FilteringInputAccessor8showPathB5cxx11ERKNS_9CanonPathE.exit

_ZNKSt7__cxx1112basic_stringIcSt11char_traitsIcESaIcEE11_M_is_localEv.exit.i.i.i.i: ; preds = %19
  call void @_ZdlPv(ptr noundef %20) #22
  br label %_ZN3nix22FilteringInputAccessor8showPathB5cxx11ERKNS_9CanonPathE.exit

26:                                               ; preds = %3
  %27 = landingpad { ptr, i32 }
          cleanup
  call void @_ZN3nix9CanonPathD2Ev(ptr noundef nonnull align 8 dereferenceable(32) %4) #21
  resume { ptr, i32 } %27

_ZN3nix22FilteringInputAccessor8showPathB5cxx11ERKNS_9CanonPathE.exit: ; preds = %_ZNKSt7__cxx1112basic_stringIcSt11char_traitsIcESaIcEE11_M_is_localEv.exit.thread.i.i.i.i, %_ZNKSt7__cxx1112basic_stringIcSt11char_traitsIcESaIcEE11_M_is_localEv.exit.i.i.i.i
  call void @_ZNSaIcED2Ev(ptr noundef nonnull align 1 dereferenceable(1) %4) #21
  call void @llvm.lifetime.end.p0(i64 32, ptr nonnull %4)
  ret void
}